; ModuleID = '44/365.c'
source_filename = "44/365.c"
target datalayout = "e-m:e-p270:32:32-p271:32:32-p272:64:64-i64:64-f80:128-n8:16:32:64-S128"
target triple = "x86_64-pc-linux-gnu"

@.str = private unnamed_addr constant [3 x i8] c"%d\00", align 1
@.str.1 = private unnamed_addr constant [4 x i8] c"%d\0A\00", align 1

; Function Attrs: noinline nounwind uwtable
define dso_local i32 @main() #0 {
  %1 = alloca i32, align 4
  %2 = alloca i32, align 4
  %3 = alloca i32, align 4
  %4 = alloca i32, align 4
  store i32 0, i32* %1, align 4
  store i32 0, i32* %2, align 4
  br label %5

5:                                                ; preds = %14, %0
  %6 = load i32, i32* %2, align 4
  %7 = icmp slt i32 %6, 6
  br i1 %7, label %8, label %17

8:                                                ; preds = %5
  %9 = call i32 (i8*, ...) @__isoc99_scanf(i8* getelementptr inbounds ([3 x i8], [3 x i8]* @.str, i64 0, i64 0), i32* %4)
  %10 = load i32, i32* %4, align 4
  %11 = call i32 @reverse(i32 %10)
  store i32 %11, i32* %3, align 4
  %12 = load i32, i32* %3, align 4
  %13 = call i32 (i8*, ...) @printf(i8* getelementptr inbounds ([4 x i8], [4 x i8]* @.str.1, i64 0, i64 0), i32 %12)
  br label %14

14:                                               ; preds = %8
  %15 = load i32, i32* %2, align 4
  %16 = add nsw i32 %15, 1
  store i32 %16, i32* %2, align 4
  br label %5

17:                                               ; preds = %5
  ret i32 0
}

declare dso_local i32 @__isoc99_scanf(i8*, ...) #1

; Function Attrs: noinline nounwind uwtable
define dso_local i32 @reverse(i32 %0) #0 {
  %2 = alloca i32, align 4
  %3 = alloca i32, align 4
  %4 = alloca [35 x i8], align 16
  %5 = alloca i32, align 4
  %6 = alloca i32, align 4
  %7 = alloca i32, align 4
  %8 = alloca i32, align 4
  store i32 %0, i32* %3, align 4
  %9 = load i32, i32* %3, align 4
  %10 = icmp eq i32 %9, 0
  br i1 %10, label %11, label %12

11:                                               ; preds = %1
  store i32 0, i32* %2, align 4
  br label %101

12:                                               ; preds = %1
  %13 = bitcast [35 x i8]* %4 to i8*
  call void @llvm.memset.p0i8.i64(i8* align 16 %13, i8 0, i64 35, i1 false)
  store i32 1, i32* %6, align 4
  %14 = load i32, i32* %3, align 4
  %15 = icmp slt i32 %14, 0
  br i1 %15, label %16, label %20

16:                                               ; preds = %12
  store i32 -1, i32* %6, align 4
  %17 = load i32, i32* %3, align 4
  %18 = load i32, i32* %6, align 4
  %19 = mul nsw i32 %17, %18
  store i32 %19, i32* %3, align 4
  br label %20

20:                                               ; preds = %16, %12
  store i32 0, i32* %5, align 4
  br label %21

21:                                               ; preds = %34, %20
  %22 = load i32, i32* %3, align 4
  %23 = icmp sgt i32 %22, 0
  br i1 %23, label %24, label %37

24:                                               ; preds = %21
  %25 = load i32, i32* %3, align 4
  %26 = srem i32 %25, 10
  %27 = add nsw i32 %26, 48
  %28 = trunc i32 %27 to i8
  %29 = load i32, i32* %5, align 4
  %30 = sext i32 %29 to i64
  %31 = getelementptr inbounds [35 x i8], [35 x i8]* %4, i64 0, i64 %30
  store i8 %28, i8* %31, align 1
  %32 = load i32, i32* %3, align 4
  %33 = sdiv i32 %32, 10
  store i32 %33, i32* %3, align 4
  br label %34

34:                                               ; preds = %24
  %35 = load i32, i32* %5, align 4
  %36 = add nsw i32 %35, 1
  store i32 %36, i32* %5, align 4
  br label %21

37:                                               ; preds = %21
  %38 = getelementptr inbounds [35 x i8], [35 x i8]* %4, i64 0, i64 0
  %39 = call i64 @strlen(i8* %38) #5
  %40 = trunc i64 %39 to i32
  store i32 %40, i32* %7, align 4
  br label %41

41:                                               ; preds = %66, %37
  %42 = getelementptr inbounds [35 x i8], [35 x i8]* %4, i64 0, i64 0
  %43 = load i8, i8* %42, align 16
  %44 = sext i8 %43 to i32
  %45 = icmp eq i32 %44, 48
  br i1 %45, label %46, label %67

46:                                               ; preds = %41
  store i32 0, i32* %5, align 4
  br label %47

47:                                               ; preds = %63, %46
  %48 = load i32, i32* %5, align 4
  %49 = load i32, i32* %7, align 4
  %50 = icmp slt i32 %48, %49
  br i1 %50, label %51, label %66

51:                                               ; preds = %47
  %52 = load i32, i32* %5, align 4
  %53 = add nsw i32 %52, 1
  %54 = sext i32 %53 to i64
  %55 = getelementptr inbounds [35 x i8], [35 x i8]* %4, i64 0, i64 %54
  %56 = load i8, i8* %55, align 1
  %57 = load i32, i32* %5, align 4
  %58 = sext i32 %57 to i64
  %59 = getelementptr inbounds [35 x i8], [35 x i8]* %4, i64 0, i64 %58
  store i8 %56, i8* %59, align 1
  %60 = getelementptr inbounds [35 x i8], [35 x i8]* %4, i64 0, i64 0
  %61 = call i64 @strlen(i8* %60) #5
  %62 = trunc i64 %61 to i32
  store i32 %62, i32* %7, align 4
  br label %63

63:                                               ; preds = %51
  %64 = load i32, i32* %5, align 4
  %65 = add nsw i32 %64, 1
  store i32 %65, i32* %5, align 4
  br label %47

66:                                               ; preds = %47
  br label %41

67:                                               ; preds = %41
  %68 = getelementptr inbounds [35 x i8], [35 x i8]* %4, i64 0, i64 0
  %69 = call i64 @strlen(i8* %68) #5
  %70 = trunc i64 %69 to i32
  store i32 %70, i32* %7, align 4
  store i32 0, i32* %5, align 4
  br label %71

71:                                               ; preds = %93, %67
  %72 = load i32, i32* %5, align 4
  %73 = load i32, i32* %7, align 4
  %74 = icmp slt i32 %72, %73
  br i1 %74, label %75, label %96

75:                                               ; preds = %71
  %76 = load i32, i32* %5, align 4
  %77 = sitofp i32 %76 to double
  %78 = call double @pow(double 1.000000e+01, double %77) #6
  %79 = fptosi double %78 to i32
  store i32 %79, i32* %8, align 4
  %80 = load i32, i32* %7, align 4
  %81 = sub nsw i32 %80, 1
  %82 = load i32, i32* %5, align 4
  %83 = sub nsw i32 %81, %82
  %84 = sext i32 %83 to i64
  %85 = getelementptr inbounds [35 x i8], [35 x i8]* %4, i64 0, i64 %84
  %86 = load i8, i8* %85, align 1
  %87 = sext i8 %86 to i32
  %88 = sub nsw i32 %87, 48
  %89 = load i32, i32* %8, align 4
  %90 = mul nsw i32 %88, %89
  %91 = load i32, i32* %3, align 4
  %92 = add nsw i32 %91, %90
  store i32 %92, i32* %3, align 4
  br label %93

93:                                               ; preds = %75
  %94 = load i32, i32* %5, align 4
  %95 = add nsw i32 %94, 1
  store i32 %95, i32* %5, align 4
  br label %71

96:                                               ; preds = %71
  %97 = load i32, i32* %3, align 4
  %98 = load i32, i32* %6, align 4
  %99 = mul nsw i32 %97, %98
  store i32 %99, i32* %3, align 4
  %100 = load i32, i32* %3, align 4
  store i32 %100, i32* %2, align 4
  br label %101

101:                                              ; preds = %96, %11
  %102 = load i32, i32* %2, align 4
  ret i32 %102
}

declare dso_local i32 @printf(i8*, ...) #1

; Function Attrs: argmemonly nounwind willreturn
declare void @llvm.memset.p0i8.i64(i8* nocapture writeonly, i8, i64, i1 immarg) #2

; Function Attrs: nounwind readonly
declare dso_local i64 @strlen(i8*) #3

; Function Attrs: nounwind
declare dso_local double @pow(double, double) #4


!llvm.module.flags = !{!0}
!llvm.ident = !{!1}

!0 = !{i32 1, !"wchar_size", i32 4}
!1 = !{!"clang version 10.0.0-4ubuntu1 "}
